; Function Attrs: mustprogress uwtable
define noundef zeroext i1 @_ZN32pxrInternal_v0_24__pxrReserved__11UsdPayloads10AddPayloadERKNSt7__cxx1112basic_stringIcSt11char_traitsIcESaIcEEERKNS_14SdfLayerOffsetENS_15UsdListPositionE(ptr noundef nonnull align 8 dereferenceable(32) %0, ptr noundef nonnull align 8 dereferenceable(32) %1, ptr noundef nonnull align 8 dereferenceable(16) %2, i32 noundef %3) local_unnamed_addr #0 align 2 personality ptr @__gxx_personality_v0 {
  %5 = alloca %"class.pxrInternal_v0_24__pxrReserved__::SdfPayload", align 8
  %6 = alloca %"class.pxrInternal_v0_24__pxrReserved__::SdfPath", align 8
  store i64 0, ptr %6, align 8
  invoke void @_ZN32pxrInternal_v0_24__pxrReserved__10SdfPayloadC1ERKNSt7__cxx1112basic_stringIcSt11char_traitsIcESaIcEEERKNS_7SdfPathERKNS_14SdfLayerOffsetE(ptr noundef nonnull align 8 dereferenceable(56) %5, ptr noundef nonnull align 8 dereferenceable(32) %1, ptr noundef nonnull align 4 dereferenceable(8) %6, ptr noundef nonnull align 8 dereferenceable(16) %2)
          to label %7 unwind label %46

7:                                                ; preds = %4
  %8 = load i32, ptr %6, align 8
  %.not.i.i = icmp eq i32 %8, 0
  br i1 %.not.i.i, label %_ZN32pxrInternal_v0_24__pxrReserved__7SdfPathD2Ev.exit, label %9

9:                                                ; preds = %7
  %10 = and i32 %8, 255
  %11 = lshr i32 %8, 8
  %12 = zext nneg i32 %10 to i64
  %13 = getelementptr inbounds nuw [257 x ptr], ptr @_ZN32pxrInternal_v0_24__pxrReserved__8Sdf_PoolINS_15Sdf_PathPrimTagELj24ELj8ELj16384EE13_regionStartsE, i64 0, i64 %12
  %14 = load ptr, ptr %13, align 8
  %15 = mul nuw nsw i32 %11, 24
  %16 = zext nneg i32 %15 to i64
  %17 = getelementptr inbounds nuw i8, ptr %14, i64 %16
  %18 = getelementptr inbounds nuw i8, ptr %17, i64 8
  %19 = atomicrmw sub ptr %18, i32 1 seq_cst, align 4
  %20 = and i32 %19, 2147483647
  %21 = icmp eq i32 %20, 1
  br i1 %21, label %22, label %_ZN32pxrInternal_v0_24__pxrReserved__7SdfPathD2Ev.exit

22:                                               ; preds = %9
  invoke void @_ZNK32pxrInternal_v0_24__pxrReserved__12Sdf_PathNode8_DestroyEv(ptr noundef nonnull align 8 dereferenceable(16) %17)
          to label %_ZN32pxrInternal_v0_24__pxrReserved__7SdfPathD2Ev.exit unwind label %23

23:                                               ; preds = %22
  %24 = landingpad { ptr, i32 }
          catch ptr null
  %25 = extractvalue { ptr, i32 } %24, 0
  call void @__clang_call_terminate(ptr %25) #17
  unreachable

_ZN32pxrInternal_v0_24__pxrReserved__7SdfPathD2Ev.exit: ; preds = %7, %9, %22
  %26 = invoke noundef zeroext i1 @_ZN32pxrInternal_v0_24__pxrReserved__16Usd_ListEditImplINS_11UsdPayloadsENS_18SdfListEditorProxyINS_20SdfPayloadTypePolicyEEEE3AddERKS1_RKNS_10SdfPayloadENS_15UsdListPositionE(ptr noundef nonnull align 8 dereferenceable(32) %0, ptr noundef nonnull align 8 dereferenceable(56) %5, i32 noundef %3)
          to label %_ZN32pxrInternal_v0_24__pxrReserved__11UsdPayloads10AddPayloadERKNS_10SdfPayloadENS_15UsdListPositionE.exit unwind label %48

_ZN32pxrInternal_v0_24__pxrReserved__11UsdPayloads10AddPayloadERKNS_10SdfPayloadENS_15UsdListPositionE.exit: ; preds = %_ZN32pxrInternal_v0_24__pxrReserved__7SdfPathD2Ev.exit
  %27 = getelementptr inbounds nuw i8, ptr %5, i64 32
  %28 = load i32, ptr %27, align 8
  %.not.i.i.i = icmp eq i32 %28, 0
  br i1 %.not.i.i.i, label %_ZN32pxrInternal_v0_24__pxrReserved__10SdfPayloadD2Ev.exit, label %29

29:                                               ; preds = %_ZN32pxrInternal_v0_24__pxrReserved__11UsdPayloads10AddPayloadERKNS_10SdfPayloadENS_15UsdListPositionE.exit
  %30 = and i32 %28, 255
  %31 = lshr i32 %28, 8
  %32 = zext nneg i32 %30 to i64
  %33 = getelementptr inbounds nuw [257 x ptr], ptr @_ZN32pxrInternal_v0_24__pxrReserved__8Sdf_PoolINS_15Sdf_PathPrimTagELj24ELj8ELj16384EE13_regionStartsE, i64 0, i64 %32
  %34 = load ptr, ptr %33, align 8
  %35 = mul nuw nsw i32 %31, 24
  %36 = zext nneg i32 %35 to i64
  %37 = getelementptr inbounds nuw i8, ptr %34, i64 %36
  %38 = getelementptr inbounds nuw i8, ptr %37, i64 8
  %39 = atomicrmw sub ptr %38, i32 1 seq_cst, align 4
  %40 = and i32 %39, 2147483647
  %41 = icmp eq i32 %40, 1
  br i1 %41, label %42, label %_ZN32pxrInternal_v0_24__pxrReserved__10SdfPayloadD2Ev.exit

42:                                               ; preds = %29
  invoke void @_ZNK32pxrInternal_v0_24__pxrReserved__12Sdf_PathNode8_DestroyEv(ptr noundef nonnull align 8 dereferenceable(16) %37)
          to label %_ZN32pxrInternal_v0_24__pxrReserved__10SdfPayloadD2Ev.exit unwind label %43

43:                                               ; preds = %42
  %44 = landingpad { ptr, i32 }
          catch ptr null
  %45 = extractvalue { ptr, i32 } %44, 0
  call void @__clang_call_terminate(ptr %45) #17
  unreachable

_ZN32pxrInternal_v0_24__pxrReserved__10SdfPayloadD2Ev.exit: ; preds = %_ZN32pxrInternal_v0_24__pxrReserved__11UsdPayloads10AddPayloadERKNS_10SdfPayloadENS_15UsdListPositionE.exit, %29, %42
  call void @_ZNSt7__cxx1112basic_stringIcSt11char_traitsIcESaIcEED1Ev(ptr noundef nonnull align 8 dereferenceable(56) %5) #15
  ret i1 %26

46:                                               ; preds = %4
  %47 = landingpad { ptr, i32 }
          cleanup
  call void @_ZN32pxrInternal_v0_24__pxrReserved__7SdfPathD2Ev(ptr noundef nonnull align 4 dereferenceable(8) %6) #15
  br label %50

48:                                               ; preds = %_ZN32pxrInternal_v0_24__pxrReserved__7SdfPathD2Ev.exit
  %49 = landingpad { ptr, i32 }
          cleanup
  call void @_ZN32pxrInternal_v0_24__pxrReserved__10SdfPayloadD2Ev(ptr noundef nonnull align 8 dereferenceable(56) %5) #15
  br label %50

50:                                               ; preds = %48, %46
  %.pn = phi { ptr, i32 } [ %49, %48 ], [ %47, %46 ]
  resume { ptr, i32 } %.pn
}